target datalayout = "e-m:e-p270:32:32-p271:32:32-p272:64:64-i64:64-i128:128-f80:128-n8:16:32:64-S128"
target triple = "x86_64-pc-linux-gnu"

%struct.git_istream = type { ptr, ptr, ptr, i64, %struct.git_zstream, i32, %union.anon }
%struct.git_zstream = type { %struct.z_stream_s, i64, i64, i64, i64, ptr, ptr }
%struct.z_stream_s = type { ptr, i32, i64, ptr, i32, i64, ptr, ptr, ptr, ptr, ptr, i32, i64, i64 }
%union.anon = type { %struct.filtered_istream }
%struct.filtered_istream = type { ptr, ptr, [16384 x i8], [16384 x i8], i32, i32, i32, i32, i32 }
%struct.object_info = type { ptr, ptr, ptr, ptr, ptr, ptr, i32, %union.anon.3 }
%union.anon.3 = type { %struct.anon.4 }
%struct.anon.4 = type { ptr, i64, i32 }
%struct.anon.0 = type { ptr, i64, [32 x i8], i32, i32 }

; Function Attrs: nounwind uwtable
define internal i32 @open_istream_loose(ptr noundef %0, ptr noundef %1, ptr noundef %2, ptr noundef %3) #0 {
  %5 = alloca i32, align 4
  %6 = alloca ptr, align 8
  %7 = alloca ptr, align 8
  %8 = alloca ptr, align 8
  %9 = alloca ptr, align 8
  %10 = alloca %struct.object_info, align 8
  %11 = alloca i32, align 4
  store ptr %0, ptr %6, align 8, !tbaa !4
  store ptr %1, ptr %7, align 8, !tbaa !21
  store ptr %2, ptr %8, align 8, !tbaa !23
  store ptr %3, ptr %9, align 8, !tbaa !18
  call void @llvm.lifetime.start.p0(i64 80, ptr %10) #8
  call void @llvm.memset.p0.i64(ptr align 8 %10, i8 0, i64 80, i1 false)
  %12 = load ptr, ptr %6, align 8, !tbaa !4
  %13 = getelementptr inbounds nuw %struct.git_istream, ptr %12, i32 0, i32 3
  %14 = getelementptr inbounds nuw %struct.object_info, ptr %10, i32 0, i32 1
  store ptr %13, ptr %14, align 8, !tbaa !67
  %15 = load ptr, ptr %9, align 8, !tbaa !18
  %16 = getelementptr inbounds nuw %struct.object_info, ptr %10, i32 0, i32 0
  store ptr %15, ptr %16, align 8, !tbaa !64
  %17 = load ptr, ptr %7, align 8, !tbaa !21
  %18 = load ptr, ptr %8, align 8, !tbaa !23
  %19 = load ptr, ptr %6, align 8, !tbaa !4
  %20 = getelementptr inbounds nuw %struct.git_istream, ptr %19, i32 0, i32 6
  %21 = getelementptr inbounds nuw %struct.anon.0, ptr %20, i32 0, i32 1
  %22 = call ptr @map_loose_object(ptr noundef %17, ptr noundef %18, ptr noundef %21)
  %23 = load ptr, ptr %6, align 8, !tbaa !4
  %24 = getelementptr inbounds nuw %struct.git_istream, ptr %23, i32 0, i32 6
  %25 = getelementptr inbounds nuw %struct.anon.0, ptr %24, i32 0, i32 0
  store ptr %22, ptr %25, align 8, !tbaa !69
  %26 = load ptr, ptr %6, align 8, !tbaa !4
  %27 = getelementptr inbounds nuw %struct.git_istream, ptr %26, i32 0, i32 6
  %28 = getelementptr inbounds nuw %struct.anon.0, ptr %27, i32 0, i32 0
  %29 = load ptr, ptr %28, align 8, !tbaa !69
  %30 = icmp ne ptr %29, null
  br i1 %30, label %32, label %31

31:                                               ; preds = %4
  store i32 -1, ptr %5, align 4
  store i32 1, ptr %11, align 4
  br label %98

32:                                               ; preds = %4
  %33 = load ptr, ptr %6, align 8, !tbaa !4
  %34 = getelementptr inbounds nuw %struct.git_istream, ptr %33, i32 0, i32 4
  %35 = load ptr, ptr %6, align 8, !tbaa !4
  %36 = getelementptr inbounds nuw %struct.git_istream, ptr %35, i32 0, i32 6
  %37 = getelementptr inbounds nuw %struct.anon.0, ptr %36, i32 0, i32 0
  %38 = load ptr, ptr %37, align 8, !tbaa !69
  %39 = load ptr, ptr %6, align 8, !tbaa !4
  %40 = getelementptr inbounds nuw %struct.git_istream, ptr %39, i32 0, i32 6
  %41 = getelementptr inbounds nuw %struct.anon.0, ptr %40, i32 0, i32 1
  %42 = load i64, ptr %41, align 8, !tbaa !69
  %43 = load ptr, ptr %6, align 8, !tbaa !4
  %44 = getelementptr inbounds nuw %struct.git_istream, ptr %43, i32 0, i32 6
  %45 = getelementptr inbounds nuw %struct.anon.0, ptr %44, i32 0, i32 2
  %46 = getelementptr inbounds [32 x i8], ptr %45, i64 0, i64 0
  %47 = call i32 @unpack_loose_header(ptr noundef %34, ptr noundef %38, i64 noundef %42, ptr noundef %46, i64 noundef 32, ptr noundef null)
  switch i32 %47, label %49 [
    i32 0, label %49
    i32 1, label %48
    i32 2, label %48
  ]

48:                                               ; preds = %32, %32
  br label %86

49:                                               ; preds = %32, %32
  %50 = load ptr, ptr %6, align 8, !tbaa !4
  %51 = getelementptr inbounds nuw %struct.git_istream, ptr %50, i32 0, i32 6
  %52 = getelementptr inbounds nuw %struct.anon.0, ptr %51, i32 0, i32 2
  %53 = getelementptr inbounds [32 x i8], ptr %52, i64 0, i64 0
  %54 = call i32 @parse_loose_header(ptr noundef %53, ptr noundef %10)
  %55 = icmp slt i32 %54, 0
  br i1 %55, label %60, label %56

56:                                               ; preds = %49
  %57 = load ptr, ptr %9, align 8, !tbaa !18
  %58 = load i32, ptr %57, align 4, !tbaa !17
  %59 = icmp slt i32 %58, 0
  br i1 %59, label %60, label %61

60:                                               ; preds = %56, %49
  br label %86

61:                                               ; preds = %56
  %62 = load ptr, ptr %6, align 8, !tbaa !4
  %63 = getelementptr inbounds nuw %struct.git_istream, ptr %62, i32 0, i32 6
  %64 = getelementptr inbounds nuw %struct.anon.0, ptr %63, i32 0, i32 2
  %65 = getelementptr inbounds [32 x i8], ptr %64, i64 0, i64 0
  %66 = call i64 @strlen(ptr noundef %65) #9
  %67 = add i64 %66, 1
  %68 = trunc i64 %67 to i32
  %69 = load ptr, ptr %6, align 8, !tbaa !4
  %70 = getelementptr inbounds nuw %struct.git_istream, ptr %69, i32 0, i32 6
  %71 = getelementptr inbounds nuw %struct.anon.0, ptr %70, i32 0, i32 4
  store i32 %68, ptr %71, align 4, !tbaa !69
  %72 = load ptr, ptr %6, align 8, !tbaa !4
  %73 = getelementptr inbounds nuw %struct.git_istream, ptr %72, i32 0, i32 4
  %74 = getelementptr inbounds nuw %struct.git_zstream, ptr %73, i32 0, i32 4
  %75 = load i64, ptr %74, align 8, !tbaa !83
  %76 = trunc i64 %75 to i32
  %77 = load ptr, ptr %6, align 8, !tbaa !4
  %78 = getelementptr inbounds nuw %struct.git_istream, ptr %77, i32 0, i32 6
  %79 = getelementptr inbounds nuw %struct.anon.0, ptr %78, i32 0, i32 3
  store i32 %76, ptr %79, align 8, !tbaa !69
  %80 = load ptr, ptr %6, align 8, !tbaa !4
  %81 = getelementptr inbounds nuw %struct.git_istream, ptr %80, i32 0, i32 5
  store i32 1, ptr %81, align 8, !tbaa !84
  %82 = load ptr, ptr %6, align 8, !tbaa !4
  %83 = getelementptr inbounds nuw %struct.git_istream, ptr %82, i32 0, i32 1
  store ptr @close_istream_loose, ptr %83, align 8, !tbaa !9
  %84 = load ptr, ptr %6, align 8, !tbaa !4
  %85 = getelementptr inbounds nuw %struct.git_istream, ptr %84, i32 0, i32 2
  store ptr @read_istream_loose, ptr %85, align 8, !tbaa !20
  store i32 0, ptr %5, align 4
  store i32 1, ptr %11, align 4
  br label %98

86:                                               ; preds = %60, %48
  %87 = load ptr, ptr %6, align 8, !tbaa !4
  %88 = getelementptr inbounds nuw %struct.git_istream, ptr %87, i32 0, i32 4
  call void @git_inflate_end(ptr noundef %88)
  %89 = load ptr, ptr %6, align 8, !tbaa !4
  %90 = getelementptr inbounds nuw %struct.git_istream, ptr %89, i32 0, i32 6
  %91 = getelementptr inbounds nuw %struct.anon.0, ptr %90, i32 0, i32 0
  %92 = load ptr, ptr %91, align 8, !tbaa !69
  %93 = load ptr, ptr %6, align 8, !tbaa !4
  %94 = getelementptr inbounds nuw %struct.git_istream, ptr %93, i32 0, i32 6
  %95 = getelementptr inbounds nuw %struct.anon.0, ptr %94, i32 0, i32 1
  %96 = load i64, ptr %95, align 8, !tbaa !69
  %97 = call i32 @munmap(ptr noundef %92, i64 noundef %96) #8
  store i32 -1, ptr %5, align 4
  store i32 1, ptr %11, align 4
  br label %98

98:                                               ; preds = %86, %61, %31
  call void @llvm.lifetime.end.p0(i64 80, ptr %10) #8
  %99 = load i32, ptr %5, align 4
  ret i32 %99
}