; Function Attrs: nounwind uwtable
define internal range(i32 -1, 1) i32 @open_istream_loose(ptr noundef %0, ptr noundef %1, ptr noundef %2, ptr noundef %3) #0 {
  %5 = alloca %struct.object_info, align 8
  call void @llvm.lifetime.start.p0(i64 80, ptr nonnull %5) #11
  %6 = getelementptr inbounds nuw i8, ptr %5, i64 16
  call void @llvm.memset.p0.i64(ptr noundef nonnull align 8 dereferenceable(80) %6, i8 0, i64 64, i1 false)
  %7 = getelementptr inbounds nuw i8, ptr %0, i64 24
  %8 = getelementptr inbounds nuw i8, ptr %5, i64 8
  store ptr %7, ptr %8, align 8, !tbaa !54
  store ptr %3, ptr %5, align 8, !tbaa !49
  %9 = getelementptr inbounds nuw i8, ptr %0, i64 200
  %10 = getelementptr inbounds nuw i8, ptr %0, i64 208
  %11 = tail call ptr @map_loose_object(ptr noundef %1, ptr noundef %2, ptr noundef nonnull %10) #11
  store ptr %11, ptr %9, align 8, !tbaa !56
  %.not = icmp eq ptr %11, null
  br i1 %.not, label %39, label %12

12:                                               ; preds = %4
  %13 = getelementptr inbounds nuw i8, ptr %0, i64 32
  %14 = load i64, ptr %10, align 8, !tbaa !56
  %15 = getelementptr inbounds nuw i8, ptr %0, i64 216
  %16 = tail call i32 @unpack_loose_header(ptr noundef nonnull %13, ptr noundef nonnull %11, i64 noundef %14, ptr noundef nonnull %15, i64 noundef 32, ptr noundef null) #11
  %.off = add i32 %16, -1
  %switch = icmp ult i32 %.off, 2
  br i1 %switch, label %35, label %17

17:                                               ; preds = %12
  %18 = call i32 @parse_loose_header(ptr noundef nonnull %15, ptr noundef nonnull %5) #11
  %19 = icmp slt i32 %18, 0
  br i1 %19, label %35, label %20

20:                                               ; preds = %17
  %21 = load i32, ptr %3, align 4, !tbaa !68
  %22 = icmp slt i32 %21, 0
  br i1 %22, label %35, label %23

23:                                               ; preds = %20
  %24 = call i64 @strlen(ptr noundef nonnull dereferenceable(1) %15) #12
  %25 = trunc i64 %24 to i32
  %26 = add i32 %25, 1
  %27 = getelementptr inbounds nuw i8, ptr %0, i64 252
  store i32 %26, ptr %27, align 4, !tbaa !56
  %28 = getelementptr inbounds nuw i8, ptr %0, i64 168
  %29 = load i64, ptr %28, align 8, !tbaa !71
  %30 = trunc i64 %29 to i32
  %31 = getelementptr inbounds nuw i8, ptr %0, i64 248
  store i32 %30, ptr %31, align 8, !tbaa !56
  %32 = getelementptr inbounds nuw i8, ptr %0, i64 192
  store i32 1, ptr %32, align 8, !tbaa !72
  %33 = getelementptr inbounds nuw i8, ptr %0, i64 8
  store ptr @close_istream_loose, ptr %33, align 8, !tbaa !4
  %34 = getelementptr inbounds nuw i8, ptr %0, i64 16
  store ptr @read_istream_loose, ptr %34, align 8, !tbaa !15
  br label %39

35:                                               ; preds = %12, %17, %20
  call void @git_inflate_end(ptr noundef nonnull %13) #11
  %36 = load ptr, ptr %9, align 8, !tbaa !56
  %37 = load i64, ptr %10, align 8, !tbaa !56
  %38 = call i32 @munmap(ptr noundef %36, i64 noundef %37) #11
  br label %39

39:                                               ; preds = %4, %35, %23
  %.0 = phi i32 [ -1, %35 ], [ 0, %23 ], [ -1, %4 ]
  call void @llvm.lifetime.end.p0(i64 80, ptr nonnull %5) #11
  ret i32 %.0
}